target datalayout = "e-m:e-p270:32:32-p271:32:32-p272:64:64-i64:64-i128:128-f80:128-n8:16:32:64-S128"
target triple = "x86_64-pc-linux-gnu"

; Function Attrs: nounwind uwtable
define i32 @GetLength_ex(ptr noundef %0, ptr noundef %1, ptr noundef %2, i32 noundef %3, i32 noundef %4) #0 {
  %6 = alloca i32, align 4
  %7 = alloca ptr, align 8
  %8 = alloca ptr, align 8
  %9 = alloca ptr, align 8
  %10 = alloca i32, align 4
  %11 = alloca i32, align 4
  %12 = alloca i32, align 4
  %13 = alloca i32, align 4
  %14 = alloca i8, align 1
  %15 = alloca i32, align 4
  %16 = alloca i32, align 4
  %17 = alloca i32, align 4
  store ptr %0, ptr %7, align 8, !tbaa !7
  store ptr %1, ptr %8, align 8, !tbaa !18
  store ptr %2, ptr %9, align 8, !tbaa !18
  store i32 %3, ptr %10, align 4, !tbaa !3
  store i32 %4, ptr %11, align 4, !tbaa !3
  call void @llvm.lifetime.start.p0(i64 4, ptr %12) #9
  store i32 0, ptr %12, align 4, !tbaa !3
  call void @llvm.lifetime.start.p0(i64 4, ptr %13) #9
  %18 = load ptr, ptr %8, align 8, !tbaa !18
  %19 = load i32, ptr %18, align 4, !tbaa !3
  store i32 %19, ptr %13, align 4, !tbaa !3
  call void @llvm.lifetime.start.p0(i64 1, ptr %14) #9
  %20 = load ptr, ptr %9, align 8, !tbaa !18
  store i32 0, ptr %20, align 4, !tbaa !3
  %21 = load i32, ptr %13, align 4, !tbaa !3
  %22 = add i32 %21, 1
  %23 = load i32, ptr %10, align 4, !tbaa !3
  %24 = icmp ugt i32 %22, %23
  br i1 %24, label %25, label %29

25:                                               ; preds = %5
  br label %26

26:                                               ; preds = %25
  br label %27

27:                                               ; preds = %26
  br label %28

28:                                               ; preds = %27
  store i32 -132, ptr %6, align 4
  store i32 1, ptr %15, align 4
  br label %131

29:                                               ; preds = %5
  %30 = load ptr, ptr %7, align 8, !tbaa !7
  %31 = load i32, ptr %13, align 4, !tbaa !3
  %32 = add i32 %31, 1
  store i32 %32, ptr %13, align 4, !tbaa !3
  %33 = zext i32 %31 to i64
  %34 = getelementptr inbounds nuw i8, ptr %30, i64 %33
  %35 = load i8, ptr %34, align 1, !tbaa !10
  store i8 %35, ptr %14, align 1, !tbaa !10
  %36 = load i8, ptr %14, align 1, !tbaa !10
  %37 = zext i8 %36 to i32
  %38 = icmp sge i32 %37, 128
  br i1 %38, label %39, label %105

39:                                               ; preds = %29
  call void @llvm.lifetime.start.p0(i64 4, ptr %16) #9
  %40 = load i8, ptr %14, align 1, !tbaa !10
  %41 = zext i8 %40 to i32
  %42 = and i32 %41, 127
  store i32 %42, ptr %16, align 4, !tbaa !3
  call void @llvm.lifetime.start.p0(i64 4, ptr %17) #9
  %43 = load i8, ptr %14, align 1, !tbaa !10
  %44 = zext i8 %43 to i32
  %45 = icmp eq i32 %44, 128
  br i1 %45, label %46, label %47

46:                                               ; preds = %39
  store i32 0, ptr %17, align 4, !tbaa !3
  br label %65

47:                                               ; preds = %39
  %48 = load i32, ptr %16, align 4, !tbaa !3
  %49 = icmp eq i32 %48, 1
  br i1 %49, label %50, label %51

50:                                               ; preds = %47
  store i32 128, ptr %17, align 4, !tbaa !3
  br label %64

51:                                               ; preds = %47
  %52 = load i32, ptr %16, align 4, !tbaa !3
  %53 = icmp sgt i32 %52, 4
  br i1 %53, label %54, label %58

54:                                               ; preds = %51
  br label %55

55:                                               ; preds = %54
  br label %56

56:                                               ; preds = %55
  br label %57

57:                                               ; preds = %56
  store i32 -140, ptr %6, align 4
  store i32 1, ptr %15, align 4
  br label %102

58:                                               ; preds = %51
  %59 = load i32, ptr %16, align 4, !tbaa !3
  %60 = sub nsw i32 %59, 1
  %61 = mul nsw i32 %60, 8
  %62 = shl i32 1, %61
  store i32 %62, ptr %17, align 4, !tbaa !3
  br label %63

63:                                               ; preds = %58
  br label %64

64:                                               ; preds = %63, %50
  br label %65

65:                                               ; preds = %64, %46
  %66 = load i32, ptr %13, align 4, !tbaa !3
  %67 = load i32, ptr %16, align 4, !tbaa !3
  %68 = add i32 %66, %67
  %69 = load i32, ptr %10, align 4, !tbaa !3
  %70 = icmp ugt i32 %68, %69
  br i1 %70, label %71, label %75

71:                                               ; preds = %65
  br label %72

72:                                               ; preds = %71
  br label %73

73:                                               ; preds = %72
  br label %74

74:                                               ; preds = %73
  store i32 -132, ptr %6, align 4
  store i32 1, ptr %15, align 4
  br label %102

75:                                               ; preds = %65
  br label %76

76:                                               ; preds = %80, %75
  %77 = load i32, ptr %16, align 4, !tbaa !3
  %78 = add nsw i32 %77, -1
  store i32 %78, ptr %16, align 4, !tbaa !3
  %79 = icmp ne i32 %77, 0
  br i1 %79, label %80, label %92

80:                                               ; preds = %76
  %81 = load ptr, ptr %7, align 8, !tbaa !7
  %82 = load i32, ptr %13, align 4, !tbaa !3
  %83 = add i32 %82, 1
  store i32 %83, ptr %13, align 4, !tbaa !3
  %84 = zext i32 %82 to i64
  %85 = getelementptr inbounds nuw i8, ptr %81, i64 %84
  %86 = load i8, ptr %85, align 1, !tbaa !10
  store i8 %86, ptr %14, align 1, !tbaa !10
  %87 = load i32, ptr %12, align 4, !tbaa !3
  %88 = shl i32 %87, 8
  %89 = load i8, ptr %14, align 1, !tbaa !10
  %90 = zext i8 %89 to i32
  %91 = or i32 %88, %90
  store i32 %91, ptr %12, align 4, !tbaa !3
  br label %76, !llvm.loop !50

92:                                               ; preds = %76
  %93 = load i32, ptr %12, align 4, !tbaa !3
  %94 = icmp slt i32 %93, 0
  br i1 %94, label %95, label %96

95:                                               ; preds = %92
  store i32 -140, ptr %6, align 4
  store i32 1, ptr %15, align 4
  br label %102

96:                                               ; preds = %92
  %97 = load i32, ptr %12, align 4, !tbaa !3
  %98 = load i32, ptr %17, align 4, !tbaa !3
  %99 = icmp slt i32 %97, %98
  br i1 %99, label %100, label %101

100:                                              ; preds = %96
  store i32 -140, ptr %6, align 4
  store i32 1, ptr %15, align 4
  br label %102

101:                                              ; preds = %96
  store i32 0, ptr %15, align 4
  br label %102

102:                                              ; preds = %101, %100, %95, %74, %57
  call void @llvm.lifetime.end.p0(i64 4, ptr %17) #9
  call void @llvm.lifetime.end.p0(i64 4, ptr %16) #9
  %103 = load i32, ptr %15, align 4
  switch i32 %103, label %131 [
    i32 0, label %104
  ]

104:                                              ; preds = %102
  br label %108

105:                                              ; preds = %29
  %106 = load i8, ptr %14, align 1, !tbaa !10
  %107 = zext i8 %106 to i32
  store i32 %107, ptr %12, align 4, !tbaa !3
  br label %108

108:                                              ; preds = %105, %104
  %109 = load i32, ptr %11, align 4, !tbaa !3
  %110 = icmp ne i32 %109, 0
  br i1 %110, label %111, label %121

111:                                              ; preds = %108
  %112 = load i32, ptr %13, align 4, !tbaa !3
  %113 = load i32, ptr %12, align 4, !tbaa !3
  %114 = add i32 %112, %113
  %115 = load i32, ptr %10, align 4, !tbaa !3
  %116 = icmp ugt i32 %114, %115
  br i1 %116, label %117, label %121

117:                                              ; preds = %111
  br label %118

118:                                              ; preds = %117
  br label %119

119:                                              ; preds = %118
  br label %120

120:                                              ; preds = %119
  store i32 -132, ptr %6, align 4
  store i32 1, ptr %15, align 4
  br label %131

121:                                              ; preds = %111, %108
  %122 = load i32, ptr %13, align 4, !tbaa !3
  %123 = load ptr, ptr %8, align 8, !tbaa !18
  store i32 %122, ptr %123, align 4, !tbaa !3
  %124 = load i32, ptr %12, align 4, !tbaa !3
  %125 = icmp sgt i32 %124, 0
  br i1 %125, label %126, label %129

126:                                              ; preds = %121
  %127 = load i32, ptr %12, align 4, !tbaa !3
  %128 = load ptr, ptr %9, align 8, !tbaa !18
  store i32 %127, ptr %128, align 4, !tbaa !3
  br label %129

129:                                              ; preds = %126, %121
  %130 = load i32, ptr %12, align 4, !tbaa !3
  store i32 %130, ptr %6, align 4
  store i32 1, ptr %15, align 4
  br label %131

131:                                              ; preds = %129, %120, %102, %28
  call void @llvm.lifetime.end.p0(i64 1, ptr %14) #9
  call void @llvm.lifetime.end.p0(i64 4, ptr %13) #9
  call void @llvm.lifetime.end.p0(i64 4, ptr %12) #9
  %132 = load i32, ptr %6, align 4
  ret i32 %132
}

; Function Attrs: nounwind uwtable
define i32 @GetASNTag(ptr noundef %0, ptr noundef %1, ptr noundef %2, i32 noundef %3) #0 {
  %5 = alloca ptr, align 8
  %6 = alloca ptr, align 8
  %7 = alloca ptr, align 8
  %8 = alloca i32, align 4
  %9 = alloca i32, align 4
  %10 = alloca i32, align 4
  store ptr %0, ptr %5, align 8, !tbaa !7
  store ptr %1, ptr %6, align 8, !tbaa !18
  store ptr %2, ptr %7, align 8, !tbaa !7
  store i32 %3, ptr %8, align 4, !tbaa !3
  call void @llvm.lifetime.start.p0(i64 4, ptr %9) #9
  store i32 0, ptr %9, align 4, !tbaa !3
  call void @llvm.lifetime.start.p0(i64 4, ptr %10) #9
  store i32 0, ptr %10, align 4, !tbaa !3
  %11 = load ptr, ptr %7, align 8, !tbaa !7
  %12 = icmp eq ptr %11, null
  br i1 %12, label %19, label %13

13:                                               ; preds = %4
  %14 = load ptr, ptr %6, align 8, !tbaa !18
  %15 = icmp eq ptr %14, null
  br i1 %15, label %19, label %16

16:                                               ; preds = %13
  %17 = load ptr, ptr %5, align 8, !tbaa !7
  %18 = icmp eq ptr %17, null
  br i1 %18, label %19, label %20

19:                                               ; preds = %16, %13, %4
  store i32 -173, ptr %9, align 4, !tbaa !3
  br label %20

20:                                               ; preds = %19, %16
  %21 = load i32, ptr %9, align 4, !tbaa !3
  %22 = icmp eq i32 %21, 0
  br i1 %22, label %23, label %35

23:                                               ; preds = %20
  %24 = load ptr, ptr %6, align 8, !tbaa !18
  %25 = load i32, ptr %24, align 4, !tbaa !3
  store i32 %25, ptr %10, align 4, !tbaa !3
  %26 = load i32, ptr %10, align 4, !tbaa !3
  %27 = add i32 %26, 1
  %28 = load i32, ptr %8, align 4, !tbaa !3
  %29 = icmp ugt i32 %27, %28
  br i1 %29, label %30, label %34

30:                                               ; preds = %23
  br label %31

31:                                               ; preds = %30
  br label %32

32:                                               ; preds = %31
  br label %33

33:                                               ; preds = %32
  store i32 -132, ptr %9, align 4, !tbaa !3
  br label %34

34:                                               ; preds = %33, %23
  br label %35

35:                                               ; preds = %34, %20
  %36 = load i32, ptr %9, align 4, !tbaa !3
  %37 = icmp eq i32 %36, 0
  br i1 %37, label %38, label %48

38:                                               ; preds = %35
  %39 = load ptr, ptr %5, align 8, !tbaa !7
  %40 = load i32, ptr %10, align 4, !tbaa !3
  %41 = zext i32 %40 to i64
  %42 = getelementptr inbounds nuw i8, ptr %39, i64 %41
  %43 = load i8, ptr %42, align 1, !tbaa !10
  %44 = load ptr, ptr %7, align 8, !tbaa !7
  store i8 %43, ptr %44, align 1, !tbaa !10
  %45 = load i32, ptr %10, align 4, !tbaa !3
  %46 = add i32 %45, 1
  %47 = load ptr, ptr %6, align 8, !tbaa !18
  store i32 %46, ptr %47, align 4, !tbaa !3
  br label %48

48:                                               ; preds = %38, %35
  %49 = load i32, ptr %9, align 4, !tbaa !3
  call void @llvm.lifetime.end.p0(i64 4, ptr %10) #9
  call void @llvm.lifetime.end.p0(i64 4, ptr %9) #9
  ret i32 %49
}

; Function Attrs: nounwind uwtable
define internal i32 @GetASNHeader_ex(ptr noundef %0, i8 noundef zeroext %1, ptr noundef %2, ptr noundef %3, i32 noundef %4, i32 noundef %5) #0 {
  %7 = alloca ptr, align 8
  %8 = alloca i8, align 1
  %9 = alloca ptr, align 8
  %10 = alloca ptr, align 8
  %11 = alloca i32, align 4
  %12 = alloca i32, align 4
  %13 = alloca i32, align 4
  %14 = alloca i32, align 4
  %15 = alloca i8, align 1
  %16 = alloca i32, align 4
  store ptr %0, ptr %7, align 8, !tbaa !7
  store i8 %1, ptr %8, align 1, !tbaa !10
  store ptr %2, ptr %9, align 8, !tbaa !18
  store ptr %3, ptr %10, align 8, !tbaa !18
  store i32 %4, ptr %11, align 4, !tbaa !3
  store i32 %5, ptr %12, align 4, !tbaa !3
  call void @llvm.lifetime.start.p0(i64 4, ptr %13) #9
  store i32 0, ptr %13, align 4, !tbaa !3
  call void @llvm.lifetime.start.p0(i64 4, ptr %14) #9
  %17 = load ptr, ptr %9, align 8, !tbaa !18
  %18 = load i32, ptr %17, align 4, !tbaa !3
  store i32 %18, ptr %14, align 4, !tbaa !3
  call void @llvm.lifetime.start.p0(i64 1, ptr %15) #9
  call void @llvm.lifetime.start.p0(i64 4, ptr %16) #9
  store i32 0, ptr %16, align 4, !tbaa !3
  %19 = load ptr, ptr %7, align 8, !tbaa !7
  %20 = load i32, ptr %11, align 4, !tbaa !3
  %21 = call i32 @GetASNTag(ptr noundef %19, ptr noundef %14, ptr noundef %15, i32 noundef %20)
  %22 = icmp ne i32 %21, 0
  br i1 %22, label %23, label %24

23:                                               ; preds = %6
  store i32 -140, ptr %13, align 4, !tbaa !3
  br label %24

24:                                               ; preds = %23, %6
  %25 = load i32, ptr %13, align 4, !tbaa !3
  %26 = icmp eq i32 %25, 0
  br i1 %26, label %27, label %34

27:                                               ; preds = %24
  %28 = load i8, ptr %15, align 1, !tbaa !10
  %29 = zext i8 %28 to i32
  %30 = load i8, ptr %8, align 1, !tbaa !10
  %31 = zext i8 %30 to i32
  %32 = icmp ne i32 %29, %31
  br i1 %32, label %33, label %34

33:                                               ; preds = %27
  store i32 -140, ptr %13, align 4, !tbaa !3
  br label %34

34:                                               ; preds = %33, %27, %24
  %35 = load i32, ptr %13, align 4, !tbaa !3
  %36 = icmp eq i32 %35, 0
  br i1 %36, label %37, label %44

37:                                               ; preds = %34
  %38 = load ptr, ptr %7, align 8, !tbaa !7
  %39 = load i32, ptr %11, align 4, !tbaa !3
  %40 = load i32, ptr %12, align 4, !tbaa !3
  %41 = call i32 @GetLength_ex(ptr noundef %38, ptr noundef %14, ptr noundef %16, i32 noundef %39, i32 noundef %40)
  %42 = icmp slt i32 %41, 0
  br i1 %42, label %43, label %44

43:                                               ; preds = %37
  store i32 -140, ptr %13, align 4, !tbaa !3
  br label %44

44:                                               ; preds = %43, %37, %34
  %45 = load i32, ptr %13, align 4, !tbaa !3
  %46 = icmp eq i32 %45, 0
  br i1 %46, label %47, label %76

47:                                               ; preds = %44
  %48 = load i8, ptr %8, align 1, !tbaa !10
  %49 = zext i8 %48 to i32
  %50 = icmp eq i32 %49, 6
  br i1 %50, label %51, label %76

51:                                               ; preds = %47
  %52 = load i32, ptr %16, align 4, !tbaa !3
  %53 = icmp slt i32 %52, 3
  br i1 %53, label %54, label %58

54:                                               ; preds = %51
  br label %55

55:                                               ; preds = %54
  br label %56

56:                                               ; preds = %55
  br label %57

57:                                               ; preds = %56
  store i32 -140, ptr %13, align 4, !tbaa !3
  br label %75

58:                                               ; preds = %51
  %59 = load ptr, ptr %7, align 8, !tbaa !7
  %60 = load i32, ptr %14, align 4, !tbaa !3
  %61 = load i32, ptr %16, align 4, !tbaa !3
  %62 = add nsw i32 %60, %61
  %63 = sub nsw i32 %62, 1
  %64 = sext i32 %63 to i64
  %65 = getelementptr inbounds i8, ptr %59, i64 %64
  %66 = load i8, ptr %65, align 1, !tbaa !10
  %67 = zext i8 %66 to i32
  %68 = and i32 %67, 128
  %69 = icmp eq i32 %68, 128
  br i1 %69, label %70, label %74

70:                                               ; preds = %58
  br label %71

71:                                               ; preds = %70
  br label %72

72:                                               ; preds = %71
  br label %73

73:                                               ; preds = %72
  store i32 -140, ptr %13, align 4, !tbaa !3
  br label %74

74:                                               ; preds = %73, %58
  br label %75

75:                                               ; preds = %74, %57
  br label %76

76:                                               ; preds = %75, %47, %44
  %77 = load i32, ptr %13, align 4, !tbaa !3
  %78 = icmp eq i32 %77, 0
  br i1 %78, label %79, label %85

79:                                               ; preds = %76
  %80 = load i32, ptr %16, align 4, !tbaa !3
  %81 = load ptr, ptr %10, align 8, !tbaa !18
  store i32 %80, ptr %81, align 4, !tbaa !3
  %82 = load i32, ptr %14, align 4, !tbaa !3
  %83 = load ptr, ptr %9, align 8, !tbaa !18
  store i32 %82, ptr %83, align 4, !tbaa !3
  %84 = load i32, ptr %16, align 4, !tbaa !3
  store i32 %84, ptr %13, align 4, !tbaa !3
  br label %85

85:                                               ; preds = %79, %76
  %86 = load i32, ptr %13, align 4, !tbaa !3
  call void @llvm.lifetime.end.p0(i64 4, ptr %16) #9
  call void @llvm.lifetime.end.p0(i64 1, ptr %15) #9
  call void @llvm.lifetime.end.p0(i64 4, ptr %14) #9
  call void @llvm.lifetime.end.p0(i64 4, ptr %13) #9
  ret i32 %86
}

; Function Attrs: nounwind uwtable
define i32 @GetASNHeader(ptr noundef %0, i8 noundef zeroext %1, ptr noundef %2, ptr noundef %3, i32 noundef %4) #0 {
  %6 = alloca ptr, align 8
  %7 = alloca i8, align 1
  %8 = alloca ptr, align 8
  %9 = alloca ptr, align 8
  %10 = alloca i32, align 4
  store ptr %0, ptr %6, align 8, !tbaa !7
  store i8 %1, ptr %7, align 1, !tbaa !10
  store ptr %2, ptr %8, align 8, !tbaa !18
  store ptr %3, ptr %9, align 8, !tbaa !18
  store i32 %4, ptr %10, align 4, !tbaa !3
  %11 = load ptr, ptr %6, align 8, !tbaa !7
  %12 = load i8, ptr %7, align 1, !tbaa !10
  %13 = load ptr, ptr %8, align 8, !tbaa !18
  %14 = load ptr, ptr %9, align 8, !tbaa !18
  %15 = load i32, ptr %10, align 4, !tbaa !3
  %16 = call i32 @GetASNHeader_ex(ptr noundef %11, i8 noundef zeroext %12, ptr noundef %13, ptr noundef %14, i32 noundef %15, i32 noundef 1)
  ret i32 %16
}

; Function Attrs: nounwind uwtable
define i32 @GetSet(ptr noundef %0, ptr noundef %1, ptr noundef %2, i32 noundef %3) #0 {
  %5 = alloca ptr, align 8
  %6 = alloca ptr, align 8
  %7 = alloca ptr, align 8
  %8 = alloca i32, align 4
  store ptr %0, ptr %5, align 8, !tbaa !7
  store ptr %1, ptr %6, align 8, !tbaa !18
  store ptr %2, ptr %7, align 8, !tbaa !18
  store i32 %3, ptr %8, align 4, !tbaa !3
  %9 = load ptr, ptr %5, align 8, !tbaa !7
  %10 = load ptr, ptr %6, align 8, !tbaa !18
  %11 = load ptr, ptr %7, align 8, !tbaa !18
  %12 = load i32, ptr %8, align 4, !tbaa !3
  %13 = call i32 @GetASNHeader(ptr noundef %9, i8 noundef zeroext 49, ptr noundef %10, ptr noundef %11, i32 noundef %12)
  ret i32 %13
}